; Function Attrs: mustprogress uwtable
define void @_ZN5osgeo4proj9operation10Conversion26createGeographicGeocentricERKNS0_4util11PropertyMapE(ptr dead_on_unwind noalias writable sret(%"class.dropbox::oxygen::nn.42") align 8 %0, ptr noundef nonnull align 8 dereferenceable(8) %1) local_unnamed_addr #0 align 2 personality ptr @__gxx_personality_v0 {
  %3 = alloca %"class.osgeo::proj::util::PropertyMap", align 8
  %4 = alloca %"class.std::vector.134", align 8
  %5 = alloca %"class.std::vector.139", align 8
  call void @llvm.lifetime.start.p0(i64 8, ptr nonnull %3) #32
  call void @_ZN5osgeo4proj9operation27createMethodMapNameEPSGCodeEi(ptr dead_on_unwind nonnull writable sret(%"class.osgeo::proj::util::PropertyMap") align 8 %3, i32 noundef 9602)
  call void @llvm.lifetime.start.p0(i64 24, ptr nonnull %4) #32
  call void @llvm.memset.p0.i64(ptr noundef nonnull align 8 dereferenceable(24) %4, i8 0, i64 24, i1 false)
  call void @llvm.lifetime.start.p0(i64 24, ptr nonnull %5) #32
  call void @llvm.memset.p0.i64(ptr noundef nonnull align 8 dereferenceable(24) %5, i8 0, i64 24, i1 false)
  invoke void @_ZN5osgeo4proj9operation10Conversion6createERKNS0_4util11PropertyMapES6_RKSt6vectorIN7dropbox6oxygen2nnISt10shared_ptrINS1_18OperationParameterEEEESaISE_EERKS7_INSA_ISB_INS1_14ParameterValueEEEESaISL_EE(ptr dead_on_unwind writable sret(%"class.dropbox::oxygen::nn.42") align 8 %0, ptr noundef nonnull align 8 dereferenceable(8) %1, ptr noundef nonnull align 8 dereferenceable(8) %3, ptr noundef nonnull align 8 dereferenceable(24) %4, ptr noundef nonnull align 8 dereferenceable(24) %5)
          to label %_ZNSt6vectorIN7dropbox6oxygen2nnISt10shared_ptrIN5osgeo4proj9operation14ParameterValueEEEESaIS9_EED2Ev.exit unwind label %37

_ZNSt6vectorIN7dropbox6oxygen2nnISt10shared_ptrIN5osgeo4proj9operation14ParameterValueEEEESaIS9_EED2Ev.exit: ; preds = %2
  %.pre = load ptr, ptr %4, align 8, !tbaa !68
  %.phi.trans.insert = getelementptr inbounds nuw i8, ptr %4, i64 8
  %.pre12 = load ptr, ptr %.phi.trans.insert, align 8, !tbaa !65
  call void @llvm.lifetime.end.p0(i64 24, ptr nonnull %5) #32
  %.not4.i.i.i.i2 = icmp eq ptr %.pre, %.pre12
  br i1 %.not4.i.i.i.i2, label %_ZSt8_DestroyIPN7dropbox6oxygen2nnISt10shared_ptrIN5osgeo4proj9operation18OperationParameterEEEES9_EvT_SB_RSaIT0_E.exit.i, label %.lr.ph.i.i.i.i3

.lr.ph.i.i.i.i3:                                  ; preds = %_ZNSt6vectorIN7dropbox6oxygen2nnISt10shared_ptrIN5osgeo4proj9operation14ParameterValueEEEESaIS9_EED2Ev.exit, %_ZSt8_DestroyIN7dropbox6oxygen2nnISt10shared_ptrIN5osgeo4proj9operation18OperationParameterEEEEEvPT_.exit.i.i.i.i
  %.05.i.i.i.i4 = phi ptr [ %29, %_ZSt8_DestroyIN7dropbox6oxygen2nnISt10shared_ptrIN5osgeo4proj9operation18OperationParameterEEEEEvPT_.exit.i.i.i.i ], [ %.pre, %_ZNSt6vectorIN7dropbox6oxygen2nnISt10shared_ptrIN5osgeo4proj9operation14ParameterValueEEEESaIS9_EED2Ev.exit ]
  %6 = getelementptr inbounds nuw i8, ptr %.05.i.i.i.i4, i64 8
  %7 = load ptr, ptr %6, align 8, !tbaa !20
  %.not.i.i.i.i.i.i.i.i5 = icmp eq ptr %7, null
  br i1 %.not.i.i.i.i.i.i.i.i5, label %_ZSt8_DestroyIN7dropbox6oxygen2nnISt10shared_ptrIN5osgeo4proj9operation18OperationParameterEEEEEvPT_.exit.i.i.i.i, label %8

8:                                                ; preds = %.lr.ph.i.i.i.i3
  %9 = getelementptr inbounds nuw i8, ptr %7, i64 8
  %10 = load atomic i64, ptr %9 acquire, align 8
  %11 = icmp eq i64 %10, 4294967297
  %12 = trunc i64 %10 to i32
  br i1 %11, label %13, label %21

13:                                               ; preds = %8
  store i32 0, ptr %9, align 8, !tbaa !24
  %14 = getelementptr inbounds nuw i8, ptr %7, i64 12
  store i32 0, ptr %14, align 4, !tbaa !26
  %15 = load ptr, ptr %7, align 8, !tbaa !3
  %16 = getelementptr inbounds nuw i8, ptr %15, i64 16
  %17 = load ptr, ptr %16, align 8
  call void %17(ptr noundef nonnull align 8 dereferenceable(16) %7) #32
  %18 = load ptr, ptr %7, align 8, !tbaa !3
  %19 = getelementptr inbounds nuw i8, ptr %18, i64 24
  %20 = load ptr, ptr %19, align 8
  call void %20(ptr noundef nonnull align 8 dereferenceable(16) %7) #32
  br label %_ZSt8_DestroyIN7dropbox6oxygen2nnISt10shared_ptrIN5osgeo4proj9operation18OperationParameterEEEEEvPT_.exit.i.i.i.i

21:                                               ; preds = %8
  %22 = load i8, ptr @__libc_single_threaded, align 1, !tbaa !21
  %.not.i.i.i.i.i.i.i.i.i6 = icmp eq i8 %22, 0
  br i1 %.not.i.i.i.i.i.i.i.i.i6, label %25, label %23

23:                                               ; preds = %21
  %24 = add nsw i32 %12, -1
  store i32 %24, ptr %9, align 4, !tbaa !22
  br label %_ZN9__gnu_cxx27__exchange_and_add_dispatchEPii.exit.i.i.i.i.i.i.i.i.i7

25:                                               ; preds = %21
  %26 = atomicrmw volatile add ptr %9, i32 -1 acq_rel, align 4
  br label %_ZN9__gnu_cxx27__exchange_and_add_dispatchEPii.exit.i.i.i.i.i.i.i.i.i7

_ZN9__gnu_cxx27__exchange_and_add_dispatchEPii.exit.i.i.i.i.i.i.i.i.i7: ; preds = %25, %23
  %.0.i.i.i.i.i.i.i.i.i.i8 = phi i32 [ %12, %23 ], [ %26, %25 ]
  %27 = icmp eq i32 %.0.i.i.i.i.i.i.i.i.i.i8, 1
  br i1 %27, label %28, label %_ZSt8_DestroyIN7dropbox6oxygen2nnISt10shared_ptrIN5osgeo4proj9operation18OperationParameterEEEEEvPT_.exit.i.i.i.i, !prof !29

28:                                               ; preds = %_ZN9__gnu_cxx27__exchange_and_add_dispatchEPii.exit.i.i.i.i.i.i.i.i.i7
  call void @_ZNSt16_Sp_counted_baseILN9__gnu_cxx12_Lock_policyE2EE24_M_release_last_use_coldEv(ptr noundef nonnull align 8 dereferenceable(16) %7) #32
  br label %_ZSt8_DestroyIN7dropbox6oxygen2nnISt10shared_ptrIN5osgeo4proj9operation18OperationParameterEEEEEvPT_.exit.i.i.i.i

_ZSt8_DestroyIN7dropbox6oxygen2nnISt10shared_ptrIN5osgeo4proj9operation18OperationParameterEEEEEvPT_.exit.i.i.i.i: ; preds = %28, %_ZN9__gnu_cxx27__exchange_and_add_dispatchEPii.exit.i.i.i.i.i.i.i.i.i7, %13, %.lr.ph.i.i.i.i3
  %29 = getelementptr inbounds nuw i8, ptr %.05.i.i.i.i4, i64 16
  %.not.i.i.i.i9 = icmp eq ptr %29, %.pre12
  br i1 %.not.i.i.i.i9, label %_ZSt8_DestroyIPN7dropbox6oxygen2nnISt10shared_ptrIN5osgeo4proj9operation18OperationParameterEEEES9_EvT_SB_RSaIT0_E.exitthread-pre-split.i, label %.lr.ph.i.i.i.i3, !llvm.loop !99

_ZSt8_DestroyIPN7dropbox6oxygen2nnISt10shared_ptrIN5osgeo4proj9operation18OperationParameterEEEES9_EvT_SB_RSaIT0_E.exitthread-pre-split.i: ; preds = %_ZSt8_DestroyIN7dropbox6oxygen2nnISt10shared_ptrIN5osgeo4proj9operation18OperationParameterEEEEEvPT_.exit.i.i.i.i
  %.pr.i10 = load ptr, ptr %4, align 8, !tbaa !68
  br label %_ZSt8_DestroyIPN7dropbox6oxygen2nnISt10shared_ptrIN5osgeo4proj9operation18OperationParameterEEEES9_EvT_SB_RSaIT0_E.exit.i

_ZSt8_DestroyIPN7dropbox6oxygen2nnISt10shared_ptrIN5osgeo4proj9operation18OperationParameterEEEES9_EvT_SB_RSaIT0_E.exit.i: ; preds = %_ZSt8_DestroyIPN7dropbox6oxygen2nnISt10shared_ptrIN5osgeo4proj9operation18OperationParameterEEEES9_EvT_SB_RSaIT0_E.exitthread-pre-split.i, %_ZNSt6vectorIN7dropbox6oxygen2nnISt10shared_ptrIN5osgeo4proj9operation14ParameterValueEEEESaIS9_EED2Ev.exit
  %30 = phi ptr [ %.pr.i10, %_ZSt8_DestroyIPN7dropbox6oxygen2nnISt10shared_ptrIN5osgeo4proj9operation18OperationParameterEEEES9_EvT_SB_RSaIT0_E.exitthread-pre-split.i ], [ %.pre, %_ZNSt6vectorIN7dropbox6oxygen2nnISt10shared_ptrIN5osgeo4proj9operation14ParameterValueEEEESaIS9_EED2Ev.exit ]
  %.not.i.i.i11 = icmp eq ptr %30, null
  br i1 %.not.i.i.i11, label %_ZNSt6vectorIN7dropbox6oxygen2nnISt10shared_ptrIN5osgeo4proj9operation18OperationParameterEEEESaIS9_EED2Ev.exit, label %31

31:                                               ; preds = %_ZSt8_DestroyIPN7dropbox6oxygen2nnISt10shared_ptrIN5osgeo4proj9operation18OperationParameterEEEES9_EvT_SB_RSaIT0_E.exit.i
  %32 = getelementptr inbounds nuw i8, ptr %4, i64 16
  %33 = load ptr, ptr %32, align 8, !tbaa !85
  %34 = ptrtoint ptr %33 to i64
  %35 = ptrtoint ptr %30 to i64
  %36 = sub i64 %34, %35
  call void @_ZdlPvm(ptr noundef nonnull %30, i64 noundef %36) #31
  br label %_ZNSt6vectorIN7dropbox6oxygen2nnISt10shared_ptrIN5osgeo4proj9operation18OperationParameterEEEESaIS9_EED2Ev.exit

_ZNSt6vectorIN7dropbox6oxygen2nnISt10shared_ptrIN5osgeo4proj9operation18OperationParameterEEEESaIS9_EED2Ev.exit: ; preds = %_ZSt8_DestroyIPN7dropbox6oxygen2nnISt10shared_ptrIN5osgeo4proj9operation18OperationParameterEEEES9_EvT_SB_RSaIT0_E.exit.i, %31
  call void @llvm.lifetime.end.p0(i64 24, ptr nonnull %4) #32
  call void @_ZN5osgeo4proj4util11PropertyMapD1Ev(ptr noundef nonnull align 8 dereferenceable(8) %3) #32
  call void @llvm.lifetime.end.p0(i64 8, ptr nonnull %3) #32
  ret void

37:                                               ; preds = %2
  %38 = landingpad { ptr, i32 }
          cleanup
  call void @_ZNSt6vectorIN7dropbox6oxygen2nnISt10shared_ptrIN5osgeo4proj9operation14ParameterValueEEEESaIS9_EED2Ev(ptr noundef nonnull align 8 dereferenceable(24) %5) #32
  call void @llvm.lifetime.end.p0(i64 24, ptr nonnull %5) #32
  call void @_ZNSt6vectorIN7dropbox6oxygen2nnISt10shared_ptrIN5osgeo4proj9operation18OperationParameterEEEESaIS9_EED2Ev(ptr noundef nonnull align 8 dereferenceable(24) %4) #32
  call void @llvm.lifetime.end.p0(i64 24, ptr nonnull %4) #32
  call void @_ZN5osgeo4proj4util11PropertyMapD1Ev(ptr noundef nonnull align 8 dereferenceable(8) %3) #32
  call void @llvm.lifetime.end.p0(i64 8, ptr nonnull %3) #32
  resume { ptr, i32 } %38
}